target datalayout = "e-m:e-p270:32:32-p271:32:32-p272:64:64-i64:64-i128:128-f80:128-n8:16:32:64-S128"
target triple = "x86_64-pc-linux-gnu"

%"class.google::protobuf::io::ZeroCopyInputStream" = type { ptr }
%"class.google::protobuf::internal::LogMessage" = type { i32, ptr, i32, %"class.std::__cxx11::basic_string" }
%"class.std::__cxx11::basic_string" = type { %"struct.std::__cxx11::basic_string<char>::_Alloc_hider", i64, %union.anon }
%"struct.std::__cxx11::basic_string<char>::_Alloc_hider" = type { ptr }
%union.anon = type { i64, [8 x i8] }
%"class.google::protobuf::internal::LogFinisher" = type { i8 }
%"class.google::protobuf::io::CopyingInputStreamAdaptor" = type <{ %"class.google::protobuf::io::ZeroCopyInputStream", ptr, i8, i8, [6 x i8], i64, %"class.std::unique_ptr", i32, i32, i32, [4 x i8] }>
%"class.std::unique_ptr" = type { %"struct.std::__uniq_ptr_data" }
%"struct.std::__uniq_ptr_data" = type { %"class.std::__uniq_ptr_impl" }
%"class.std::__uniq_ptr_impl" = type { %"class.std::tuple" }
%"class.std::tuple" = type { %"struct.std::_Tuple_impl" }
%"struct.std::_Tuple_impl" = type { %"struct.std::_Head_base.1" }
%"struct.std::_Head_base.1" = type { ptr }

@.str = private unnamed_addr constant [56 x i8] c"third_party/protobuf-lite/zero_copy_stream_impl_lite.cc\00", align 1
@.str.4 = private unnamed_addr constant [31 x i8] c"CHECK failed: (count) >= (0): \00", align 1

; Function Attrs: mustprogress uwtable
define noundef zeroext i1 @_ZN6google8protobuf2io25CopyingInputStreamAdaptor4SkipEi(ptr noundef nonnull align 8 dereferenceable(52) %0, i32 noundef %1) unnamed_addr #4 align 2 personality ptr @__gxx_personality_v0 {
  %3 = alloca i1, align 1
  %4 = alloca ptr, align 8
  %5 = alloca i32, align 4
  %6 = alloca %"class.google::protobuf::internal::LogMessage", align 8
  %7 = alloca i1, align 1
  %8 = alloca ptr, align 8
  %9 = alloca i32, align 4
  %10 = alloca %"class.google::protobuf::internal::LogFinisher", align 1
  %11 = alloca i32, align 4
  store ptr %0, ptr %4, align 8
  store i32 %1, ptr %5, align 4
  %12 = load ptr, ptr %4, align 8
  %13 = load i32, ptr %5, align 4
  %14 = icmp sge i32 %13, 0
  store i1 false, ptr %7, align 1
  br i1 %14, label %15, label %16

15:                                               ; preds = %2
  br label %20

16:                                               ; preds = %2
  call void @_ZN6google8protobuf8internal10LogMessageC1ENS0_8LogLevelEPKci(ptr noundef nonnull align 8 dereferenceable(56) %6, i32 noundef 3, ptr noundef @.str, i32 noundef 259)
  store i1 true, ptr %7, align 1
  %17 = invoke noundef nonnull align 8 dereferenceable(56) ptr @_ZN6google8protobuf8internal10LogMessagelsEPKc(ptr noundef nonnull align 8 dereferenceable(56) %6, ptr noundef @.str.4)
          to label %18 unwind label %28

18:                                               ; preds = %16
  invoke void @_ZN6google8protobuf8internal11LogFinisheraSERNS1_10LogMessageE(ptr noundef nonnull align 1 dereferenceable(1) %10, ptr noundef nonnull align 8 dereferenceable(56) %17)
          to label %19 unwind label %28

19:                                               ; preds = %18
  br label %20

20:                                               ; preds = %19, %15
  %21 = load i1, ptr %7, align 1
  br i1 %21, label %22, label %23

22:                                               ; preds = %20
  call void @_ZN6google8protobuf8internal10LogMessageD1Ev(ptr noundef nonnull align 8 dereferenceable(56) %6) #3
  br label %23

23:                                               ; preds = %22, %20
  %24 = getelementptr inbounds %"class.google::protobuf::io::CopyingInputStreamAdaptor", ptr %12, i32 0, i32 3
  %25 = load i8, ptr %24, align 1
  %26 = trunc i8 %25 to i1
  br i1 %26, label %27, label %35

27:                                               ; preds = %23
  store i1 false, ptr %3, align 1
  br label %66

28:                                               ; preds = %18, %16
  %29 = landingpad { ptr, i32 }
          cleanup
  %30 = extractvalue { ptr, i32 } %29, 0
  store ptr %30, ptr %8, align 8
  %31 = extractvalue { ptr, i32 } %29, 1
  store i32 %31, ptr %9, align 4
  %32 = load i1, ptr %7, align 1
  br i1 %32, label %33, label %34

33:                                               ; preds = %28
  call void @_ZN6google8protobuf8internal10LogMessageD1Ev(ptr noundef nonnull align 8 dereferenceable(56) %6) #3
  br label %34

34:                                               ; preds = %33, %28
  br label %68

35:                                               ; preds = %23
  %36 = getelementptr inbounds %"class.google::protobuf::io::CopyingInputStreamAdaptor", ptr %12, i32 0, i32 9
  %37 = load i32, ptr %36, align 8
  %38 = load i32, ptr %5, align 4
  %39 = icmp sge i32 %37, %38
  br i1 %39, label %40, label %45

40:                                               ; preds = %35
  %41 = load i32, ptr %5, align 4
  %42 = getelementptr inbounds %"class.google::protobuf::io::CopyingInputStreamAdaptor", ptr %12, i32 0, i32 9
  %43 = load i32, ptr %42, align 8
  %44 = sub nsw i32 %43, %41
  store i32 %44, ptr %42, align 8
  store i1 true, ptr %3, align 1
  br label %66

45:                                               ; preds = %35
  %46 = getelementptr inbounds %"class.google::protobuf::io::CopyingInputStreamAdaptor", ptr %12, i32 0, i32 9
  %47 = load i32, ptr %46, align 8
  %48 = load i32, ptr %5, align 4
  %49 = sub nsw i32 %48, %47
  store i32 %49, ptr %5, align 4
  %50 = getelementptr inbounds %"class.google::protobuf::io::CopyingInputStreamAdaptor", ptr %12, i32 0, i32 9
  store i32 0, ptr %50, align 8
  %51 = getelementptr inbounds %"class.google::protobuf::io::CopyingInputStreamAdaptor", ptr %12, i32 0, i32 1
  %52 = load ptr, ptr %51, align 8
  %53 = load i32, ptr %5, align 4
  %54 = load ptr, ptr %52, align 8
  %55 = getelementptr inbounds ptr, ptr %54, i64 3
  %56 = load ptr, ptr %55, align 8
  %57 = call noundef i32 %56(ptr noundef nonnull align 8 dereferenceable(8) %52, i32 noundef %53)
  store i32 %57, ptr %11, align 4
  %58 = load i32, ptr %11, align 4
  %59 = sext i32 %58 to i64
  %60 = getelementptr inbounds %"class.google::protobuf::io::CopyingInputStreamAdaptor", ptr %12, i32 0, i32 5
  %61 = load i64, ptr %60, align 8
  %62 = add nsw i64 %61, %59
  store i64 %62, ptr %60, align 8
  %63 = load i32, ptr %11, align 4
  %64 = load i32, ptr %5, align 4
  %65 = icmp eq i32 %63, %64
  store i1 %65, ptr %3, align 1
  br label %66

66:                                               ; preds = %45, %40, %27
  %67 = load i1, ptr %3, align 1
  ret i1 %67

68:                                               ; preds = %34
  %69 = load ptr, ptr %8, align 8
  %70 = load i32, ptr %9, align 4
  %71 = insertvalue { ptr, i32 } poison, ptr %69, 0
  %72 = insertvalue { ptr, i32 } %71, i32 %70, 1
  resume { ptr, i32 } %72
}