; Function Attrs: mustprogress uwtable
define noundef zeroext i1 @_ZN6google8protobuf2io25CopyingInputStreamAdaptor4SkipEi(ptr nocapture noundef nonnull align 8 dereferenceable(52) %0, i32 noundef %1) unnamed_addr #5 align 2 personality ptr @__gxx_personality_v0 {
  %3 = alloca %"class.google::protobuf::internal::LogMessage", align 8
  %4 = alloca %"class.google::protobuf::internal::LogFinisher", align 1
  %5 = icmp slt i32 %1, 0
  br i1 %5, label %6, label %.critedge

6:                                                ; preds = %2
  call void @_ZN6google8protobuf8internal10LogMessageC1ENS0_8LogLevelEPKci(ptr noundef nonnull align 8 dereferenceable(56) %3, i32 noundef 3, ptr noundef nonnull @.str, i32 noundef 259)
  %7 = invoke noundef nonnull align 8 dereferenceable(56) ptr @_ZN6google8protobuf8internal10LogMessagelsEPKc(ptr noundef nonnull align 8 dereferenceable(56) %3, ptr noundef nonnull @.str.4)
          to label %8 unwind label %13

8:                                                ; preds = %6
  invoke void @_ZN6google8protobuf8internal11LogFinisheraSERNS1_10LogMessageE(ptr noundef nonnull align 1 dereferenceable(1) %4, ptr noundef nonnull align 8 dereferenceable(56) %7)
          to label %9 unwind label %13

9:                                                ; preds = %8
  call void @_ZN6google8protobuf8internal10LogMessageD1Ev(ptr noundef nonnull align 8 dereferenceable(56) %3) #16
  br label %.critedge

.critedge:                                        ; preds = %2, %9
  %10 = getelementptr inbounds i8, ptr %0, i64 17
  %11 = load i8, ptr %10, align 1
  %12 = trunc i8 %11 to i1
  br i1 %12, label %33, label %15

13:                                               ; preds = %8, %6
  %14 = landingpad { ptr, i32 }
          cleanup
  call void @_ZN6google8protobuf8internal10LogMessageD1Ev(ptr noundef nonnull align 8 dereferenceable(56) %3) #16
  resume { ptr, i32 } %14

15:                                               ; preds = %.critedge
  %16 = getelementptr inbounds i8, ptr %0, i64 48
  %17 = load i32, ptr %16, align 8
  %.not = icmp slt i32 %17, %1
  br i1 %.not, label %20, label %18

18:                                               ; preds = %15
  %19 = sub nsw i32 %17, %1
  store i32 %19, ptr %16, align 8
  br label %33

20:                                               ; preds = %15
  %21 = sub nsw i32 %1, %17
  store i32 0, ptr %16, align 8
  %22 = getelementptr inbounds i8, ptr %0, i64 8
  %23 = load ptr, ptr %22, align 8
  %24 = load ptr, ptr %23, align 8
  %25 = getelementptr inbounds i8, ptr %24, i64 24
  %26 = load ptr, ptr %25, align 8
  %27 = call noundef i32 %26(ptr noundef nonnull align 8 dereferenceable(8) %23, i32 noundef %21)
  %28 = sext i32 %27 to i64
  %29 = getelementptr inbounds i8, ptr %0, i64 24
  %30 = load i64, ptr %29, align 8
  %31 = add nsw i64 %30, %28
  store i64 %31, ptr %29, align 8
  %32 = icmp eq i32 %27, %21
  br label %33

33:                                               ; preds = %.critedge, %20, %18
  %.0 = phi i1 [ true, %18 ], [ %32, %20 ], [ false, %.critedge ]
  ret i1 %.0
}